; Function Attrs: mustprogress uwtable
define noundef i32 @ucol_getVariableTop_75(ptr noundef %coll, ptr noundef %status) local_unnamed_addr #0 {
entry:
  %0 = load i32, ptr %status, align 4
  %cmp.i = icmp sgt i32 %0, 0
  %cmp = icmp eq ptr %coll, null
  %or.cond = or i1 %cmp, %cmp.i
  br i1 %or.cond, label %return, label %if.end

if.end:                                           ; preds = %entry
  %vtable = load ptr, ptr %coll, align 8
  %vfn = getelementptr inbounds i8, ptr %vtable, i64 240
  %1 = load ptr, ptr %vfn, align 8
  %call2 = tail call noundef i32 %1(ptr noundef nonnull align 8 dereferenceable(8) %coll, ptr noundef nonnull align 4 dereferenceable(4) %status)
  br label %return

return:                                           ; preds = %entry, %if.end
  %retval.0 = phi i32 [ %call2, %if.end ], [ 0, %entry ]
  ret i32 %retval.0
}